target datalayout = "e-m:e-p270:32:32-p271:32:32-p272:64:64-i64:64-i128:128-f80:128-n8:16:32:64-S128"
target triple = "x86_64-pc-linux-gnu"

%"class.std::__cxx11::basic_string" = type { %"struct.std::__cxx11::basic_string<char>::_Alloc_hider", i64, %union.anon }
%"struct.std::__cxx11::basic_string<char>::_Alloc_hider" = type { ptr }
%union.anon = type { i64, [8 x i8] }
%"struct.Assimp::D3DS::Texture" = type { float, %"class.std::__cxx11::basic_string", float, float, float, float, float, i32, i8, i32 }
%struct.aiString = type { i32, [1024 x i8] }
%union._IEEESingle = type { float }

@.str.6 = private unnamed_addr constant [10 x i8] c"$tex.file\00", align 1
@.str.7 = private unnamed_addr constant [11 x i8] c"$tex.blend\00", align 1
@.str.8 = private unnamed_addr constant [14 x i8] c"$tex.mapmodeu\00", align 1
@.str.9 = private unnamed_addr constant [14 x i8] c"$tex.mapmodev\00", align 1
@.str.10 = private unnamed_addr constant [13 x i8] c"$tex.uvtrafo\00", align 1

; Function Attrs: noinline noreturn nounwind uwtable
define linkonce_odr hidden void @__clang_call_terminate(ptr noundef %0) #14 comdat {
  %2 = call ptr @__cxa_begin_catch(ptr %0) #18
  call void @_ZSt9terminatev() #20
  unreachable
}

; Function Attrs: mustprogress nounwind uwtable
define available_externally noundef ptr @_ZNKSt7__cxx1112basic_stringIcSt11char_traitsIcESaIcEE7_M_dataEv(ptr noundef nonnull align 8 dereferenceable(32) %0) #2 align 2 {
  %2 = alloca ptr, align 8
  store ptr %0, ptr %2, align 8
  %3 = load ptr, ptr %2, align 8
  %4 = getelementptr inbounds nuw %"class.std::__cxx11::basic_string", ptr %3, i32 0, i32 0
  %5 = getelementptr inbounds nuw %"struct.std::__cxx11::basic_string<char>::_Alloc_hider", ptr %4, i32 0, i32 0
  %6 = load ptr, ptr %5, align 8
  ret ptr %6
}

; Function Attrs: inlinehint mustprogress nounwind uwtable
define linkonce_odr hidden noundef zeroext i1 @_Z7is_qnanf(float noundef %0) #3 comdat {
  %2 = alloca float, align 4
  %3 = alloca %union._IEEESingle, align 4
  store float %0, ptr %2, align 4
  call void @llvm.lifetime.start.p0(i64 4, ptr %3) #18
  call void @llvm.memcpy.p0.p0.i64(ptr align 4 %3, ptr align 4 %2, i64 4, i1 false)
  %4 = load i32, ptr %3, align 4
  %5 = lshr i32 %4, 23
  %6 = and i32 %5, 255
  %7 = icmp eq i32 %6, 255
  br i1 %7, label %8, label %12

8:                                                ; preds = %1
  %9 = load i32, ptr %3, align 4
  %10 = and i32 %9, 8388607
  %11 = icmp ne i32 %10, 0
  br label %12

12:                                               ; preds = %8, %1
  %13 = phi i1 [ false, %1 ], [ %11, %8 ]
  call void @llvm.lifetime.end.p0(i64 4, ptr %3) #18
  ret i1 %13
}

; Function Attrs: mustprogress nounwind uwtable
define available_externally noundef ptr @_ZNKSt7__cxx1112basic_stringIcSt11char_traitsIcESaIcEE5c_strEv(ptr noundef nonnull align 8 dereferenceable(32) %0) #2 align 2 personality ptr @__gxx_personality_v0 {
  %2 = alloca ptr, align 8
  store ptr %0, ptr %2, align 8
  %3 = load ptr, ptr %2, align 8
  %4 = invoke noundef ptr @_ZNKSt7__cxx1112basic_stringIcSt11char_traitsIcESaIcEE7_M_dataEv(ptr noundef nonnull align 8 dereferenceable(32) %3)
          to label %5 unwind label %6

5:                                                ; preds = %1
  ret ptr %4

6:                                                ; preds = %1
  %7 = landingpad { ptr, i32 }
          catch ptr null
  %8 = extractvalue { ptr, i32 } %7, 0
  call void @__clang_call_terminate(ptr %8) #20
  unreachable
}

; Function Attrs: mustprogress nounwind uwtable
define available_externally noundef i64 @_ZNKSt7__cxx1112basic_stringIcSt11char_traitsIcESaIcEE6lengthEv(ptr noundef nonnull align 8 dereferenceable(32) %0) #2 align 2 {
  %2 = alloca ptr, align 8
  store ptr %0, ptr %2, align 8
  %3 = load ptr, ptr %2, align 8
  %4 = getelementptr inbounds nuw %"class.std::__cxx11::basic_string", ptr %3, i32 0, i32 1
  %5 = load i64, ptr %4, align 8
  ret i64 %5
}

; Function Attrs: inlinehint mustprogress uwtable
define linkonce_odr noundef i32 @_ZN10aiMaterial11AddPropertyIiEE8aiReturnPKT_jPKcjj(ptr noundef nonnull align 8 dereferenceable(16) %0, ptr noundef %1, i32 noundef %2, ptr noundef %3, i32 noundef %4, i32 noundef %5) #7 comdat align 2 {
  %7 = alloca ptr, align 8
  %8 = alloca ptr, align 8
  %9 = alloca i32, align 4
  %10 = alloca ptr, align 8
  %11 = alloca i32, align 4
  %12 = alloca i32, align 4
  store ptr %0, ptr %7, align 8
  store ptr %1, ptr %8, align 8
  store i32 %2, ptr %9, align 4
  store ptr %3, ptr %10, align 8
  store i32 %4, ptr %11, align 4
  store i32 %5, ptr %12, align 4
  %13 = load ptr, ptr %7, align 8
  %14 = load ptr, ptr %8, align 8
  %15 = load i32, ptr %9, align 4
  %16 = zext i32 %15 to i64
  %17 = mul i64 %16, 4
  %18 = trunc i64 %17 to i32
  %19 = load ptr, ptr %10, align 8
  %20 = load i32, ptr %11, align 4
  %21 = load i32, ptr %12, align 4
  %22 = call noundef i32 @_ZN10aiMaterial17AddBinaryPropertyEPKvjPKcjj18aiPropertyTypeInfo(ptr noundef nonnull align 8 dereferenceable(16) %13, ptr noundef %14, i32 noundef %18, ptr noundef %19, i32 noundef %20, i32 noundef %21, i32 noundef 4)
  ret i32 %22
}

; Function Attrs: inlinehint mustprogress uwtable
define linkonce_odr noundef i32 @_ZN10aiMaterial11AddPropertyIfEE8aiReturnPKT_jPKcjj(ptr noundef nonnull align 8 dereferenceable(16) %0, ptr noundef %1, i32 noundef %2, ptr noundef %3, i32 noundef %4, i32 noundef %5) #7 comdat align 2 {
  %7 = alloca ptr, align 8
  %8 = alloca ptr, align 8
  %9 = alloca i32, align 4
  %10 = alloca ptr, align 8
  %11 = alloca i32, align 4
  %12 = alloca i32, align 4
  store ptr %0, ptr %7, align 8
  store ptr %1, ptr %8, align 8
  store i32 %2, ptr %9, align 4
  store ptr %3, ptr %10, align 8
  store i32 %4, ptr %11, align 4
  store i32 %5, ptr %12, align 4
  %13 = load ptr, ptr %7, align 8
  %14 = load ptr, ptr %8, align 8
  %15 = load i32, ptr %9, align 4
  %16 = zext i32 %15 to i64
  %17 = mul i64 %16, 4
  %18 = trunc i64 %17 to i32
  %19 = load ptr, ptr %10, align 8
  %20 = load i32, ptr %11, align 4
  %21 = load i32, ptr %12, align 4
  %22 = call noundef i32 @_ZN10aiMaterial17AddBinaryPropertyEPKvjPKcjj18aiPropertyTypeInfo(ptr noundef nonnull align 8 dereferenceable(16) %13, ptr noundef %14, i32 noundef %18, ptr noundef %19, i32 noundef %20, i32 noundef %21, i32 noundef 1)
  ret i32 %22
}

; Function Attrs: inlinehint mustprogress uwtable
define linkonce_odr hidden noundef zeroext i1 @_Z11is_not_qnanIfEbT_(float noundef %0) #7 comdat {
  %2 = alloca float, align 4
  store float %0, ptr %2, align 4
  %3 = load float, ptr %2, align 4
  %4 = call noundef zeroext i1 @_Z7is_qnanf(float noundef %3)
  %5 = xor i1 %4, true
  ret i1 %5
}

; Function Attrs: mustprogress nounwind uwtable
define linkonce_odr hidden void @_ZN8aiString3SetERKNSt7__cxx1112basic_stringIcSt11char_traitsIcESaIcEEE(ptr noundef nonnull align 4 dereferenceable(1028) %0, ptr noundef nonnull align 8 dereferenceable(32) %1) #2 comdat align 2 {
  %3 = alloca ptr, align 8
  %4 = alloca ptr, align 8
  store ptr %0, ptr %3, align 8
  store ptr %1, ptr %4, align 8
  %5 = load ptr, ptr %3, align 8
  %6 = load ptr, ptr %4, align 8
  %7 = call noundef i64 @_ZNKSt7__cxx1112basic_stringIcSt11char_traitsIcESaIcEE6lengthEv(ptr noundef nonnull align 8 dereferenceable(32) %6) #18
  %8 = icmp ugt i64 %7, 1023
  br i1 %8, label %9, label %10

9:                                                ; preds = %2
  br label %27

10:                                               ; preds = %2
  %11 = load ptr, ptr %4, align 8
  %12 = call noundef i64 @_ZNKSt7__cxx1112basic_stringIcSt11char_traitsIcESaIcEE6lengthEv(ptr noundef nonnull align 8 dereferenceable(32) %11) #18
  %13 = trunc i64 %12 to i32
  %14 = getelementptr inbounds nuw %struct.aiString, ptr %5, i32 0, i32 0
  store i32 %13, ptr %14, align 4
  %15 = getelementptr inbounds nuw %struct.aiString, ptr %5, i32 0, i32 1
  %16 = getelementptr inbounds [1024 x i8], ptr %15, i64 0, i64 0
  %17 = load ptr, ptr %4, align 8
  %18 = call noundef ptr @_ZNKSt7__cxx1112basic_stringIcSt11char_traitsIcESaIcEE5c_strEv(ptr noundef nonnull align 8 dereferenceable(32) %17) #18
  %19 = getelementptr inbounds nuw %struct.aiString, ptr %5, i32 0, i32 0
  %20 = load i32, ptr %19, align 4
  %21 = zext i32 %20 to i64
  call void @llvm.memcpy.p0.p0.i64(ptr align 4 %16, ptr align 1 %18, i64 %21, i1 false)
  %22 = getelementptr inbounds nuw %struct.aiString, ptr %5, i32 0, i32 1
  %23 = getelementptr inbounds nuw %struct.aiString, ptr %5, i32 0, i32 0
  %24 = load i32, ptr %23, align 4
  %25 = zext i32 %24 to i64
  %26 = getelementptr inbounds nuw [1024 x i8], ptr %22, i64 0, i64 %25
  store i8 0, ptr %26, align 1
  br label %27

27:                                               ; preds = %10, %9
  ret void
}

; Function Attrs: mustprogress nounwind uwtable
define linkonce_odr hidden void @_ZN8aiStringC2Ev(ptr noundef nonnull align 4 dereferenceable(1028) %0) unnamed_addr #2 comdat align 2 {
  %2 = alloca ptr, align 8
  store ptr %0, ptr %2, align 8
  %3 = load ptr, ptr %2, align 8
  %4 = getelementptr inbounds nuw %struct.aiString, ptr %3, i32 0, i32 0
  store i32 0, ptr %4, align 4
  %5 = getelementptr inbounds nuw %struct.aiString, ptr %3, i32 0, i32 1
  call void @llvm.memset.p0.i64(ptr align 4 %5, i8 0, i64 1024, i1 false)
  ret void
}

; Function Attrs: mustprogress uwtable
define hidden void @_ZN6Assimp11CopyTextureER10aiMaterialRNS_4D3DS7TextureE13aiTextureType(ptr noundef nonnull align 8 dereferenceable(16) %0, ptr noundef nonnull align 8 dereferenceable(72) %1, i32 noundef %2) #0 {
  %4 = alloca ptr, align 8
  %5 = alloca ptr, align 8
  %6 = alloca i32, align 4
  %7 = alloca %struct.aiString, align 4
  %8 = alloca i32, align 4
  store ptr %0, ptr %4, align 8
  store ptr %1, ptr %5, align 8
  store i32 %2, ptr %6, align 4
  call void @llvm.lifetime.start.p0(i64 1028, ptr %7) #18
  call void @_ZN8aiStringC2Ev(ptr noundef nonnull align 4 dereferenceable(1028) %7) #18
  %9 = load ptr, ptr %5, align 8
  %10 = getelementptr inbounds nuw %"struct.Assimp::D3DS::Texture", ptr %9, i32 0, i32 1
  call void @_ZN8aiString3SetERKNSt7__cxx1112basic_stringIcSt11char_traitsIcESaIcEEE(ptr noundef nonnull align 4 dereferenceable(1028) %7, ptr noundef nonnull align 8 dereferenceable(32) %10)
  %11 = load ptr, ptr %4, align 8
  %12 = load i32, ptr %6, align 4
  %13 = call noundef i32 @_ZN10aiMaterial11AddPropertyEPK8aiStringPKcjj(ptr noundef nonnull align 8 dereferenceable(16) %11, ptr noundef %7, ptr noundef @.str.6, i32 noundef %12, i32 noundef 0)
  %14 = load ptr, ptr %5, align 8
  %15 = getelementptr inbounds nuw %"struct.Assimp::D3DS::Texture", ptr %14, i32 0, i32 0
  %16 = load float, ptr %15, align 8
  %17 = call noundef zeroext i1 @_Z11is_not_qnanIfEbT_(float noundef %16)
  br i1 %17, label %18, label %24

18:                                               ; preds = %3
  %19 = load ptr, ptr %4, align 8
  %20 = load ptr, ptr %5, align 8
  %21 = getelementptr inbounds nuw %"struct.Assimp::D3DS::Texture", ptr %20, i32 0, i32 0
  %22 = load i32, ptr %6, align 4
  %23 = call noundef i32 @_ZN10aiMaterial11AddPropertyIfEE8aiReturnPKT_jPKcjj(ptr noundef nonnull align 8 dereferenceable(16) %19, ptr noundef %21, i32 noundef 1, ptr noundef @.str.7, i32 noundef %22, i32 noundef 0)
  br label %24

24:                                               ; preds = %18, %3
  call void @llvm.lifetime.start.p0(i64 4, ptr %8) #18
  %25 = load ptr, ptr %5, align 8
  %26 = getelementptr inbounds nuw %"struct.Assimp::D3DS::Texture", ptr %25, i32 0, i32 7
  %27 = load i32, ptr %26, align 4
  store i32 %27, ptr %8, align 4
  %28 = load ptr, ptr %4, align 8
  %29 = load i32, ptr %6, align 4
  %30 = call noundef i32 @_ZN10aiMaterial11AddPropertyIiEE8aiReturnPKT_jPKcjj(ptr noundef nonnull align 8 dereferenceable(16) %28, ptr noundef %8, i32 noundef 1, ptr noundef @.str.8, i32 noundef %29, i32 noundef 0)
  %31 = load ptr, ptr %4, align 8
  %32 = load i32, ptr %6, align 4
  %33 = call noundef i32 @_ZN10aiMaterial11AddPropertyIiEE8aiReturnPKT_jPKcjj(ptr noundef nonnull align 8 dereferenceable(16) %31, ptr noundef %8, i32 noundef 1, ptr noundef @.str.9, i32 noundef %32, i32 noundef 0)
  %34 = load ptr, ptr %5, align 8
  %35 = getelementptr inbounds nuw %"struct.Assimp::D3DS::Texture", ptr %34, i32 0, i32 7
  %36 = load i32, ptr %35, align 4
  %37 = icmp eq i32 %36, 2
  br i1 %37, label %38, label %63

38:                                               ; preds = %24
  %39 = load ptr, ptr %5, align 8
  %40 = getelementptr inbounds nuw %"struct.Assimp::D3DS::Texture", ptr %39, i32 0, i32 4
  %41 = load float, ptr %40, align 8
  %42 = fpext float %41 to double
  %43 = fmul double %42, 2.000000e+00
  %44 = fptrunc double %43 to float
  store float %44, ptr %40, align 8
  %45 = load ptr, ptr %5, align 8
  %46 = getelementptr inbounds nuw %"struct.Assimp::D3DS::Texture", ptr %45, i32 0, i32 5
  %47 = load float, ptr %46, align 4
  %48 = fpext float %47 to double
  %49 = fmul double %48, 2.000000e+00
  %50 = fptrunc double %49 to float
  store float %50, ptr %46, align 4
  %51 = load ptr, ptr %5, align 8
  %52 = getelementptr inbounds nuw %"struct.Assimp::D3DS::Texture", ptr %51, i32 0, i32 2
  %53 = load float, ptr %52, align 8
  %54 = fpext float %53 to double
  %55 = fdiv double %54, 2.000000e+00
  %56 = fptrunc double %55 to float
  store float %56, ptr %52, align 8
  %57 = load ptr, ptr %5, align 8
  %58 = getelementptr inbounds nuw %"struct.Assimp::D3DS::Texture", ptr %57, i32 0, i32 3
  %59 = load float, ptr %58, align 4
  %60 = fpext float %59 to double
  %61 = fdiv double %60, 2.000000e+00
  %62 = fptrunc double %61 to float
  store float %62, ptr %58, align 4
  br label %63

63:                                               ; preds = %38, %24
  %64 = load ptr, ptr %4, align 8
  %65 = load ptr, ptr %5, align 8
  %66 = getelementptr inbounds nuw %"struct.Assimp::D3DS::Texture", ptr %65, i32 0, i32 2
  %67 = load i32, ptr %6, align 4
  %68 = call noundef i32 @_ZN10aiMaterial11AddPropertyIfEE8aiReturnPKT_jPKcjj(ptr noundef nonnull align 8 dereferenceable(16) %64, ptr noundef %66, i32 noundef 5, ptr noundef @.str.10, i32 noundef %67, i32 noundef 0)
  call void @llvm.lifetime.end.p0(i64 4, ptr %8) #18
  call void @llvm.lifetime.end.p0(i64 1028, ptr %7) #18
  ret void
}