; Function Attrs: mustprogress uwtable
define hidden void @_ZN6Assimp11CopyTextureER10aiMaterialRNS_4D3DS7TextureE13aiTextureType(ptr noundef nonnull align 8 dereferenceable(16) %0, ptr noundef nonnull align 8 dereferenceable(72) %1, i32 noundef %2) local_unnamed_addr #0 personality ptr @__gxx_personality_v0 {
  %4 = alloca %struct.aiString, align 4
  %5 = alloca i32, align 4
  call void @llvm.lifetime.start.p0(i64 1028, ptr nonnull %4) #26
  call void @llvm.memset.p0.i64(ptr noundef nonnull align 4 dereferenceable(1028) %4, i8 0, i64 1028, i1 false)
  %6 = getelementptr inbounds nuw i8, ptr %1, i64 16
  %7 = load i64, ptr %6, align 8
  %8 = icmp ugt i64 %7, 1023
  br i1 %8, label %_ZN8aiString3SetERKNSt7__cxx1112basic_stringIcSt11char_traitsIcESaIcEEE.exit, label %9

9:                                                ; preds = %3
  %10 = getelementptr inbounds nuw i8, ptr %1, i64 8
  %11 = trunc nuw i64 %7 to i32
  store i32 %11, ptr %4, align 4
  %12 = getelementptr inbounds nuw i8, ptr %4, i64 4
  %13 = load ptr, ptr %10, align 8
  call void @llvm.memcpy.p0.p0.i64(ptr nonnull align 4 %12, ptr align 1 %13, i64 %7, i1 false)
  %14 = getelementptr inbounds nuw [1024 x i8], ptr %12, i64 0, i64 %7
  store i8 0, ptr %14, align 1
  br label %_ZN8aiString3SetERKNSt7__cxx1112basic_stringIcSt11char_traitsIcESaIcEEE.exit

_ZN8aiString3SetERKNSt7__cxx1112basic_stringIcSt11char_traitsIcESaIcEEE.exit: ; preds = %3, %9
  %15 = call noundef i32 @_ZN10aiMaterial11AddPropertyEPK8aiStringPKcjj(ptr noundef nonnull align 8 dereferenceable(16) %0, ptr noundef nonnull %4, ptr noundef nonnull @.str.6, i32 noundef %2, i32 noundef 0)
  %16 = load float, ptr %1, align 8
  %17 = fcmp ord float %16, 0.000000e+00
  br i1 %17, label %18, label %20

18:                                               ; preds = %_ZN8aiString3SetERKNSt7__cxx1112basic_stringIcSt11char_traitsIcESaIcEEE.exit
  %19 = call noundef i32 @_ZN10aiMaterial17AddBinaryPropertyEPKvjPKcjj18aiPropertyTypeInfo(ptr noundef nonnull align 8 dereferenceable(16) %0, ptr noundef nonnull %1, i32 noundef 4, ptr noundef nonnull @.str.7, i32 noundef %2, i32 noundef 0, i32 noundef 1)
  br label %20

20:                                               ; preds = %18, %_ZN8aiString3SetERKNSt7__cxx1112basic_stringIcSt11char_traitsIcESaIcEEE.exit
  call void @llvm.lifetime.start.p0(i64 4, ptr nonnull %5) #26
  %21 = getelementptr inbounds nuw i8, ptr %1, i64 60
  %22 = load i32, ptr %21, align 4
  store i32 %22, ptr %5, align 4
  %23 = call noundef i32 @_ZN10aiMaterial17AddBinaryPropertyEPKvjPKcjj18aiPropertyTypeInfo(ptr noundef nonnull align 8 dereferenceable(16) %0, ptr noundef nonnull %5, i32 noundef 4, ptr noundef nonnull @.str.8, i32 noundef %2, i32 noundef 0, i32 noundef 4)
  %24 = call noundef i32 @_ZN10aiMaterial17AddBinaryPropertyEPKvjPKcjj18aiPropertyTypeInfo(ptr noundef nonnull align 8 dereferenceable(16) %0, ptr noundef nonnull %5, i32 noundef 4, ptr noundef nonnull @.str.9, i32 noundef %2, i32 noundef 0, i32 noundef 4)
  %25 = load i32, ptr %21, align 4
  %26 = icmp eq i32 %25, 2
  br i1 %26, label %27, label %40

27:                                               ; preds = %20
  %28 = getelementptr inbounds nuw i8, ptr %1, i64 48
  %29 = load float, ptr %28, align 8
  %30 = fmul float %29, 2.000000e+00
  store float %30, ptr %28, align 8
  %31 = getelementptr inbounds nuw i8, ptr %1, i64 52
  %32 = load float, ptr %31, align 4
  %33 = fmul float %32, 2.000000e+00
  store float %33, ptr %31, align 4
  %34 = getelementptr inbounds nuw i8, ptr %1, i64 40
  %35 = load float, ptr %34, align 8
  %36 = fmul float %35, 5.000000e-01
  store float %36, ptr %34, align 8
  %37 = getelementptr inbounds nuw i8, ptr %1, i64 44
  %38 = load float, ptr %37, align 4
  %39 = fmul float %38, 5.000000e-01
  store float %39, ptr %37, align 4
  br label %40

40:                                               ; preds = %27, %20
  %41 = getelementptr inbounds nuw i8, ptr %1, i64 40
  %42 = call noundef i32 @_ZN10aiMaterial17AddBinaryPropertyEPKvjPKcjj18aiPropertyTypeInfo(ptr noundef nonnull align 8 dereferenceable(16) %0, ptr noundef nonnull %41, i32 noundef 20, ptr noundef nonnull @.str.10, i32 noundef %2, i32 noundef 0, i32 noundef 1)
  call void @llvm.lifetime.end.p0(i64 4, ptr nonnull %5) #26
  call void @llvm.lifetime.end.p0(i64 1028, ptr nonnull %4) #26
  ret void
}